target datalayout = "e-m:e-p270:32:32-p271:32:32-p272:64:64-i64:64-i128:128-f80:128-n8:16:32:64-S128"
target triple = "x86_64-unknown-linux-gnu"

%"class.icu_75::PluralRules" = type <{ %"class.icu_75::UObject", ptr, ptr, i32, [4 x i8] }>
%"class.icu_75::UObject" = type { ptr }
%"class.icu_75::RuleChain" = type { ptr, %"class.icu_75::UnicodeString", ptr, ptr, %"class.icu_75::UnicodeString", %"class.icu_75::UnicodeString", i8, i8, i32 }
%"class.icu_75::UnicodeString" = type { %"class.icu_75::Replaceable", %"union.icu_75::UnicodeString::StackBufferOrFields" }
%"class.icu_75::Replaceable" = type { %"class.icu_75::UObject" }
%"union.icu_75::UnicodeString::StackBufferOrFields" = type { %struct.anon.0, [32 x i8] }
%struct.anon.0 = type { i16, i32, i32, ptr }

; Function Attrs: mustprogress nounwind uwtable
define linkonce_odr noundef i32 @_ZNK6icu_7513UnicodeString14getShortLengthEv(ptr noundef nonnull align 8 dereferenceable(64) %this) #0 comdat align 2 {
entry:
  %this.addr = alloca ptr, align 8
  store ptr %this, ptr %this.addr, align 8
  %this1 = load ptr, ptr %this.addr, align 8
  %fUnion = getelementptr inbounds %"class.icu_75::UnicodeString", ptr %this1, i32 0, i32 1
  %fLengthAndFlags = getelementptr inbounds %struct.anon.0, ptr %fUnion, i32 0, i32 0
  %0 = load i16, ptr %fLengthAndFlags, align 8
  %conv = sext i16 %0 to i32
  %shr = ashr i32 %conv, 5
  ret i32 %shr
}

; Function Attrs: mustprogress nounwind uwtable
define linkonce_odr noundef signext i8 @_ZNK6icu_7513UnicodeString14hasShortLengthEv(ptr noundef nonnull align 8 dereferenceable(64) %this) #0 comdat align 2 {
entry:
  %this.addr = alloca ptr, align 8
  store ptr %this, ptr %this.addr, align 8
  %this1 = load ptr, ptr %this.addr, align 8
  %fUnion = getelementptr inbounds %"class.icu_75::UnicodeString", ptr %this1, i32 0, i32 1
  %fLengthAndFlags = getelementptr inbounds %struct.anon.0, ptr %fUnion, i32 0, i32 0
  %0 = load i16, ptr %fLengthAndFlags, align 8
  %conv = sext i16 %0 to i32
  %cmp = icmp sge i32 %conv, 0
  %conv2 = zext i1 %cmp to i8
  ret i8 %conv2
}

; Function Attrs: mustprogress uwtable
define linkonce_odr noundef i32 @_ZNK6icu_7513UnicodeString6lengthEv(ptr noundef nonnull align 8 dereferenceable(64) %this) #1 comdat align 2 {
entry:
  %this.addr = alloca ptr, align 8
  store ptr %this, ptr %this.addr, align 8
  %this1 = load ptr, ptr %this.addr, align 8
  %call = call noundef signext i8 @_ZNK6icu_7513UnicodeString14hasShortLengthEv(ptr noundef nonnull align 8 dereferenceable(64) %this1)
  %tobool = icmp ne i8 %call, 0
  br i1 %tobool, label %cond.true, label %cond.false

cond.true:                                        ; preds = %entry
  %call2 = call noundef i32 @_ZNK6icu_7513UnicodeString14getShortLengthEv(ptr noundef nonnull align 8 dereferenceable(64) %this1)
  br label %cond.end

cond.false:                                       ; preds = %entry
  %fUnion = getelementptr inbounds %"class.icu_75::UnicodeString", ptr %this1, i32 0, i32 1
  %fLength = getelementptr inbounds %struct.anon.0, ptr %fUnion, i32 0, i32 1
  %0 = load i32, ptr %fLength, align 4
  br label %cond.end

cond.end:                                         ; preds = %cond.false, %cond.true
  %cond = phi i32 [ %call2, %cond.true ], [ %0, %cond.false ]
  ret i32 %cond
}

; Function Attrs: mustprogress nounwind uwtable
define linkonce_odr noundef signext i8 @_ZNK6icu_7513UnicodeString7isBogusEv(ptr noundef nonnull align 8 dereferenceable(64) %this) #0 comdat align 2 {
entry:
  %this.addr = alloca ptr, align 8
  store ptr %this, ptr %this.addr, align 8
  %this1 = load ptr, ptr %this.addr, align 8
  %fUnion = getelementptr inbounds %"class.icu_75::UnicodeString", ptr %this1, i32 0, i32 1
  %fLengthAndFlags = getelementptr inbounds %struct.anon.0, ptr %fUnion, i32 0, i32 0
  %0 = load i16, ptr %fLengthAndFlags, align 8
  %conv = sext i16 %0 to i32
  %and = and i32 %conv, 1
  %conv2 = trunc i32 %and to i8
  ret i8 %conv2
}

; Function Attrs: mustprogress uwtable
define linkonce_odr noundef zeroext i1 @_ZNK6icu_7513UnicodeStringeqERKS0_(ptr noundef nonnull align 8 dereferenceable(64) %this, ptr noundef nonnull align 8 dereferenceable(64) %text) #1 comdat align 2 {
entry:
  %retval = alloca i1, align 1
  %this.addr = alloca ptr, align 8
  %text.addr = alloca ptr, align 8
  %len = alloca i32, align 4
  %textLength = alloca i32, align 4
  store ptr %this, ptr %this.addr, align 8
  store ptr %text, ptr %text.addr, align 8
  %this1 = load ptr, ptr %this.addr, align 8
  %call = call noundef signext i8 @_ZNK6icu_7513UnicodeString7isBogusEv(ptr noundef nonnull align 8 dereferenceable(64) %this1)
  %tobool = icmp ne i8 %call, 0
  br i1 %tobool, label %if.then, label %if.else

if.then:                                          ; preds = %entry
  %0 = load ptr, ptr %text.addr, align 8
  %call2 = call noundef signext i8 @_ZNK6icu_7513UnicodeString7isBogusEv(ptr noundef nonnull align 8 dereferenceable(64) %0)
  %tobool3 = icmp ne i8 %call2, 0
  store i1 %tobool3, ptr %retval, align 1
  br label %return

if.else:                                          ; preds = %entry
  %call4 = call noundef i32 @_ZNK6icu_7513UnicodeString6lengthEv(ptr noundef nonnull align 8 dereferenceable(64) %this1)
  store i32 %call4, ptr %len, align 4
  %1 = load ptr, ptr %text.addr, align 8
  %call5 = call noundef i32 @_ZNK6icu_7513UnicodeString6lengthEv(ptr noundef nonnull align 8 dereferenceable(64) %1)
  store i32 %call5, ptr %textLength, align 4
  %2 = load ptr, ptr %text.addr, align 8
  %call6 = call noundef signext i8 @_ZNK6icu_7513UnicodeString7isBogusEv(ptr noundef nonnull align 8 dereferenceable(64) %2)
  %tobool7 = icmp ne i8 %call6, 0
  br i1 %tobool7, label %land.end, label %land.lhs.true

land.lhs.true:                                    ; preds = %if.else
  %3 = load i32, ptr %len, align 4
  %4 = load i32, ptr %textLength, align 4
  %cmp = icmp eq i32 %3, %4
  br i1 %cmp, label %land.rhs, label %land.end

land.rhs:                                         ; preds = %land.lhs.true
  %5 = load ptr, ptr %text.addr, align 8
  %6 = load i32, ptr %len, align 4
  %call8 = call noundef signext i8 @_ZNK6icu_7513UnicodeString8doEqualsERKS0_i(ptr noundef nonnull align 8 dereferenceable(64) %this1, ptr noundef nonnull align 8 dereferenceable(64) %5, i32 noundef %6)
  %tobool9 = icmp ne i8 %call8, 0
  br label %land.end

land.end:                                         ; preds = %land.rhs, %land.lhs.true, %if.else
  %7 = phi i1 [ false, %land.lhs.true ], [ false, %if.else ], [ %tobool9, %land.rhs ]
  store i1 %7, ptr %retval, align 1
  br label %return

return:                                           ; preds = %land.end, %if.then
  %8 = load i1, ptr %retval, align 1
  ret i1 %8
}

; Function Attrs: mustprogress uwtable
define noundef ptr @_ZNK6icu_7511PluralRules15rulesForKeywordERKNS_13UnicodeStringE(ptr noundef nonnull align 8 dereferenceable(28) %this, ptr noundef nonnull align 8 dereferenceable(64) %keyword) #1 align 2 {
entry:
  %this.addr = alloca ptr, align 8
  %keyword.addr = alloca ptr, align 8
  %rc = alloca ptr, align 8
  store ptr %this, ptr %this.addr, align 8
  store ptr %keyword, ptr %keyword.addr, align 8
  %this1 = load ptr, ptr %this.addr, align 8
  %mRules = getelementptr inbounds %"class.icu_75::PluralRules", ptr %this1, i32 0, i32 1
  %0 = load ptr, ptr %mRules, align 8
  store ptr %0, ptr %rc, align 8
  br label %for.cond

for.cond:                                         ; preds = %for.inc, %entry
  %1 = load ptr, ptr %rc, align 8
  %cmp = icmp ne ptr %1, null
  br i1 %cmp, label %for.body, label %for.end

for.body:                                         ; preds = %for.cond
  %2 = load ptr, ptr %rc, align 8
  %fKeyword = getelementptr inbounds %"class.icu_75::RuleChain", ptr %2, i32 0, i32 1
  %3 = load ptr, ptr %keyword.addr, align 8
  %call = call noundef zeroext i1 @_ZNK6icu_7513UnicodeStringeqERKS0_(ptr noundef nonnull align 8 dereferenceable(64) %fKeyword, ptr noundef nonnull align 8 dereferenceable(64) %3)
  br i1 %call, label %if.then, label %if.end

if.then:                                          ; preds = %for.body
  br label %for.end

if.end:                                           ; preds = %for.body
  br label %for.inc

for.inc:                                          ; preds = %if.end
  %4 = load ptr, ptr %rc, align 8
  %fNext = getelementptr inbounds %"class.icu_75::RuleChain", ptr %4, i32 0, i32 2
  %5 = load ptr, ptr %fNext, align 8
  store ptr %5, ptr %rc, align 8
  br label %for.cond, !llvm.loop !14

for.end:                                          ; preds = %if.then, %for.cond
  %6 = load ptr, ptr %rc, align 8
  ret ptr %6
}

; Function Attrs: mustprogress nounwind uwtable
define internal noundef signext i8 @_ZL9U_FAILURE10UErrorCode(i32 noundef %code) #0 {
entry:
  %code.addr = alloca i32, align 4
  store i32 %code, ptr %code.addr, align 4
  %0 = load i32, ptr %code.addr, align 4
  %cmp = icmp sgt i32 %0, 0
  %conv = zext i1 %cmp to i8
  ret i8 %conv
}

; Function Attrs: mustprogress uwtable
define noundef i32 @_ZN6icu_7511PluralRules10getSamplesERKNS_13UnicodeStringEPNS_6number4impl15DecimalQuantityEiR10UErrorCode(ptr noundef nonnull align 8 dereferenceable(28) %this, ptr noundef nonnull align 8 dereferenceable(64) %keyword, ptr noundef %dest, i32 noundef %destCapacity, ptr noundef nonnull align 4 dereferenceable(4) %status) #1 align 2 {
entry:
  %retval = alloca i32, align 4
  %this.addr = alloca ptr, align 8
  %keyword.addr = alloca ptr, align 8
  %dest.addr = alloca ptr, align 8
  %destCapacity.addr = alloca i32, align 4
  %status.addr = alloca ptr, align 8
  %rc = alloca ptr, align 8
  %numSamples = alloca i32, align 4
  store ptr %this, ptr %this.addr, align 8
  store ptr %keyword, ptr %keyword.addr, align 8
  store ptr %dest, ptr %dest.addr, align 8
  store i32 %destCapacity, ptr %destCapacity.addr, align 4
  store ptr %status, ptr %status.addr, align 8
  %this1 = load ptr, ptr %this.addr, align 8
  %0 = load ptr, ptr %status.addr, align 8
  %1 = load i32, ptr %0, align 4
  %call = call noundef signext i8 @_ZL9U_FAILURE10UErrorCode(i32 noundef %1)
  %tobool = icmp ne i8 %call, 0
  br i1 %tobool, label %if.then, label %if.end

if.then:                                          ; preds = %entry
  store i32 0, ptr %retval, align 4
  br label %return

if.end:                                           ; preds = %entry
  %mInternalStatus = getelementptr inbounds %"class.icu_75::PluralRules", ptr %this1, i32 0, i32 3
  %2 = load i32, ptr %mInternalStatus, align 8
  %call2 = call noundef signext i8 @_ZL9U_FAILURE10UErrorCode(i32 noundef %2)
  %tobool3 = icmp ne i8 %call2, 0
  br i1 %tobool3, label %if.then4, label %if.end6

if.then4:                                         ; preds = %if.end
  %mInternalStatus5 = getelementptr inbounds %"class.icu_75::PluralRules", ptr %this1, i32 0, i32 3
  %3 = load i32, ptr %mInternalStatus5, align 8
  %4 = load ptr, ptr %status.addr, align 8
  store i32 %3, ptr %4, align 4
  store i32 0, ptr %retval, align 4
  br label %return

if.end6:                                          ; preds = %if.end
  %5 = load ptr, ptr %dest.addr, align 8
  %cmp = icmp ne ptr %5, null
  br i1 %cmp, label %cond.true, label %cond.false

cond.true:                                        ; preds = %if.end6
  %6 = load i32, ptr %destCapacity.addr, align 4
  %cmp7 = icmp slt i32 %6, 0
  br i1 %cmp7, label %if.then9, label %if.end10

cond.false:                                       ; preds = %if.end6
  %7 = load i32, ptr %destCapacity.addr, align 4
  %cmp8 = icmp ne i32 %7, 0
  br i1 %cmp8, label %if.then9, label %if.end10

if.then9:                                         ; preds = %cond.false, %cond.true
  %8 = load ptr, ptr %status.addr, align 8
  store i32 1, ptr %8, align 4
  store i32 0, ptr %retval, align 4
  br label %return

if.end10:                                         ; preds = %cond.false, %cond.true
  %9 = load ptr, ptr %keyword.addr, align 8
  %call11 = call noundef ptr @_ZNK6icu_7511PluralRules15rulesForKeywordERKNS_13UnicodeStringE(ptr noundef nonnull align 8 dereferenceable(28) %this1, ptr noundef nonnull align 8 dereferenceable(64) %9)
  store ptr %call11, ptr %rc, align 8
  %10 = load ptr, ptr %rc, align 8
  %cmp12 = icmp eq ptr %10, null
  br i1 %cmp12, label %if.then13, label %if.end14

if.then13:                                        ; preds = %if.end10
  store i32 0, ptr %retval, align 4
  br label %return

if.end14:                                         ; preds = %if.end10
  %11 = load ptr, ptr %rc, align 8
  %fIntegerSamples = getelementptr inbounds %"class.icu_75::RuleChain", ptr %11, i32 0, i32 5
  %12 = load ptr, ptr %dest.addr, align 8
  %13 = load i32, ptr %destCapacity.addr, align 4
  %14 = load ptr, ptr %status.addr, align 8
  %call15 = call noundef i32 @_ZN6icu_75L20getSamplesFromStringERKNS_13UnicodeStringEPdPNS_6number4impl15DecimalQuantityEiR10UErrorCode(ptr noundef nonnull align 8 dereferenceable(64) %fIntegerSamples, ptr noundef null, ptr noundef %12, i32 noundef %13, ptr noundef nonnull align 4 dereferenceable(4) %14)
  store i32 %call15, ptr %numSamples, align 4
  %15 = load i32, ptr %numSamples, align 4
  %cmp16 = icmp eq i32 %15, 0
  br i1 %cmp16, label %if.then17, label %if.end19

if.then17:                                        ; preds = %if.end14
  %16 = load ptr, ptr %rc, align 8
  %fDecimalSamples = getelementptr inbounds %"class.icu_75::RuleChain", ptr %16, i32 0, i32 4
  %17 = load ptr, ptr %dest.addr, align 8
  %18 = load i32, ptr %destCapacity.addr, align 4
  %19 = load ptr, ptr %status.addr, align 8
  %call18 = call noundef i32 @_ZN6icu_75L20getSamplesFromStringERKNS_13UnicodeStringEPdPNS_6number4impl15DecimalQuantityEiR10UErrorCode(ptr noundef nonnull align 8 dereferenceable(64) %fDecimalSamples, ptr noundef null, ptr noundef %17, i32 noundef %18, ptr noundef nonnull align 4 dereferenceable(4) %19)
  store i32 %call18, ptr %numSamples, align 4
  br label %if.end19

if.end19:                                         ; preds = %if.then17, %if.end14
  %20 = load i32, ptr %numSamples, align 4
  store i32 %20, ptr %retval, align 4
  br label %return

return:                                           ; preds = %if.end19, %if.then13, %if.then9, %if.then4, %if.then
  %21 = load i32, ptr %retval, align 4
  ret i32 %21
}