; Function Attrs: mustprogress uwtable
define noundef i32 @_ZN6icu_7511PluralRules10getSamplesERKNS_13UnicodeStringEPNS_6number4impl15DecimalQuantityEiR10UErrorCode(ptr nocapture noundef nonnull readonly align 8 dereferenceable(28) %this, ptr noundef nonnull align 8 dereferenceable(64) %keyword, ptr noundef %dest, i32 noundef %destCapacity, ptr noundef nonnull align 4 dereferenceable(4) %status) local_unnamed_addr #1 align 2 {
entry:
  %0 = load i32, ptr %status, align 4
  %cmp.i = icmp slt i32 %0, 1
  br i1 %cmp.i, label %if.end, label %return

if.end:                                           ; preds = %entry
  %mInternalStatus = getelementptr inbounds i8, ptr %this, i64 24
  %1 = load i32, ptr %mInternalStatus, align 8
  %cmp.i13 = icmp slt i32 %1, 1
  br i1 %cmp.i13, label %if.end6, label %if.then4

if.then4:                                         ; preds = %if.end
  store i32 %1, ptr %status, align 4
  br label %return

if.end6:                                          ; preds = %if.end
  %cmp.not = icmp eq ptr %dest, null
  br i1 %cmp.not, label %cond.false, label %cond.true

cond.true:                                        ; preds = %if.end6
  %cmp7 = icmp slt i32 %destCapacity, 0
  br i1 %cmp7, label %if.then9, label %if.end10

cond.false:                                       ; preds = %if.end6
  %cmp8.not = icmp eq i32 %destCapacity, 0
  br i1 %cmp8.not, label %if.end10, label %if.then9

if.then9:                                         ; preds = %cond.false, %cond.true
  store i32 1, ptr %status, align 4
  br label %return

if.end10:                                         ; preds = %cond.false, %cond.true
  %mRules.i = getelementptr inbounds i8, ptr %this, i64 8
  %fUnion.i5.i.i = getelementptr inbounds i8, ptr %keyword, i64 8
  %rc.05.i = load ptr, ptr %mRules.i, align 8
  %cmp.not6.i = icmp eq ptr %rc.05.i, null
  br i1 %cmp.not6.i, label %return, label %for.body.lr.ph.i

for.body.lr.ph.i:                                 ; preds = %if.end10
  %fLength.i10.i.i = getelementptr inbounds i8, ptr %keyword, i64 12
  br label %for.body.i

for.body.i:                                       ; preds = %for.inc.i, %for.body.lr.ph.i
  %rc.07.i = phi ptr [ %rc.05.i, %for.body.lr.ph.i ], [ %rc.0.i, %for.inc.i ]
  %fKeyword.i = getelementptr inbounds i8, ptr %rc.07.i, i64 8
  %fUnion.i.i.i = getelementptr inbounds i8, ptr %rc.07.i, i64 16
  %2 = load i16, ptr %fUnion.i.i.i, align 8
  %conv2.i14.i.i = and i16 %2, 1
  %tobool.not.i.i = icmp eq i16 %conv2.i14.i.i, 0
  br i1 %tobool.not.i.i, label %if.else.i.i, label %if.then.i.i

if.then.i.i:                                      ; preds = %for.body.i
  %3 = load i16, ptr %fUnion.i5.i.i, align 8
  %conv2.i615.i.i = and i16 %3, 1
  %tobool3.i.not.i = icmp eq i16 %conv2.i615.i.i, 0
  br i1 %tobool3.i.not.i, label %for.inc.i, label %if.end14

if.else.i.i:                                      ; preds = %for.body.i
  %cmp.i.i.i.i = icmp slt i16 %2, 0
  %4 = ashr i16 %2, 5
  %shr.i.i.i.i = sext i16 %4 to i32
  %fLength.i.i.i = getelementptr inbounds i8, ptr %rc.07.i, i64 20
  %5 = load i32, ptr %fLength.i.i.i, align 4
  %cond.i.i.i = select i1 %cmp.i.i.i.i, i32 %5, i32 %shr.i.i.i.i
  %6 = load i16, ptr %fUnion.i5.i.i, align 8
  %cmp.i.i8.i.i = icmp slt i16 %6, 0
  %7 = ashr i16 %6, 5
  %shr.i.i9.i.i = sext i16 %7 to i32
  %8 = load i32, ptr %fLength.i10.i.i, align 4
  %cond.i11.i.i = select i1 %cmp.i.i8.i.i, i32 %8, i32 %shr.i.i9.i.i
  %conv2.i1316.i.i = and i16 %6, 1
  %tobool7.not.i.i = icmp eq i16 %conv2.i1316.i.i, 0
  %cmp.i.i = icmp eq i32 %cond.i.i.i, %cond.i11.i.i
  %or.cond.i.i = and i1 %tobool7.not.i.i, %cmp.i.i
  br i1 %or.cond.i.i, label %_ZNK6icu_7513UnicodeStringeqERKS0_.exit.i, label %for.inc.i

_ZNK6icu_7513UnicodeStringeqERKS0_.exit.i:        ; preds = %if.else.i.i
  %call8.i.i = tail call noundef signext i8 @_ZNK6icu_7513UnicodeString8doEqualsERKS0_i(ptr noundef nonnull align 8 dereferenceable(64) %fKeyword.i, ptr noundef nonnull align 8 dereferenceable(64) %keyword, i32 noundef %cond.i.i.i)
  %tobool9.i.not.i = icmp eq i8 %call8.i.i, 0
  br i1 %tobool9.i.not.i, label %for.inc.i, label %if.end14

for.inc.i:                                        ; preds = %_ZNK6icu_7513UnicodeStringeqERKS0_.exit.i, %if.else.i.i, %if.then.i.i
  %fNext.i = getelementptr inbounds i8, ptr %rc.07.i, i64 72
  %rc.0.i = load ptr, ptr %fNext.i, align 8
  %cmp.not.i = icmp eq ptr %rc.0.i, null
  br i1 %cmp.not.i, label %return, label %for.body.i, !llvm.loop !40

if.end14:                                         ; preds = %_ZNK6icu_7513UnicodeStringeqERKS0_.exit.i, %if.then.i.i
  %fIntegerSamples = getelementptr inbounds i8, ptr %rc.07.i, i64 152
  %call15 = tail call fastcc noundef i32 @_ZN6icu_75L20getSamplesFromStringERKNS_13UnicodeStringEPdPNS_6number4impl15DecimalQuantityEiR10UErrorCode(ptr noundef nonnull align 8 dereferenceable(64) %fIntegerSamples, ptr noundef null, ptr noundef %dest, i32 noundef %destCapacity, ptr noundef nonnull align 4 dereferenceable(4) %status)
  %cmp16 = icmp eq i32 %call15, 0
  br i1 %cmp16, label %if.then17, label %return

if.then17:                                        ; preds = %if.end14
  %fDecimalSamples = getelementptr inbounds i8, ptr %rc.07.i, i64 88
  %call18 = tail call fastcc noundef i32 @_ZN6icu_75L20getSamplesFromStringERKNS_13UnicodeStringEPdPNS_6number4impl15DecimalQuantityEiR10UErrorCode(ptr noundef nonnull align 8 dereferenceable(64) %fDecimalSamples, ptr noundef null, ptr noundef %dest, i32 noundef %destCapacity, ptr noundef nonnull align 4 dereferenceable(4) %status)
  br label %return

return:                                           ; preds = %for.inc.i, %if.end10, %if.end14, %if.then17, %entry, %if.then9, %if.then4
  %retval.0 = phi i32 [ 0, %if.then4 ], [ 0, %if.then9 ], [ 0, %entry ], [ %call18, %if.then17 ], [ %call15, %if.end14 ], [ 0, %if.end10 ], [ 0, %for.inc.i ]
  ret i32 %retval.0
}